target datalayout = "e-m:e-p270:32:32-p271:32:32-p272:64:64-i64:64-i128:128-f80:128-n8:16:32:64-S128"
target triple = "x86_64-pc-linux-gnu"

%struct.Ver_Man_t_ = type { i32, i32, i32, ptr, ptr, i32, ptr, ptr, ptr, ptr, i32, i32, [2000 x i8], ptr, ptr, ptr, ptr }

@.str = private unnamed_addr constant [8 x i8] c"%s: %s\0A\00", align 1
@.str.1 = private unnamed_addr constant [18 x i8] c"%s (line %d): %s\0A\00", align 1
@.str.7 = private unnamed_addr constant [47 x i8] c"Cannot find opening bracket in signal name %s.\00", align 1

; Function Attrs: nounwind uwtable
define internal void @Ver_ParseFreeData(ptr noundef %0) #0 {
  %2 = alloca ptr, align 8
  store ptr %0, ptr %2, align 8, !tbaa !12
  %3 = load ptr, ptr %2, align 8, !tbaa !12
  %4 = getelementptr inbounds nuw %struct.Ver_Man_t_, ptr %3, i32 0, i32 7
  %5 = load ptr, ptr %4, align 8, !tbaa !24
  %6 = icmp ne ptr %5, null
  br i1 %6, label %7, label %13

7:                                                ; preds = %1
  %8 = load ptr, ptr %2, align 8, !tbaa !12
  %9 = getelementptr inbounds nuw %struct.Ver_Man_t_, ptr %8, i32 0, i32 7
  %10 = load ptr, ptr %9, align 8, !tbaa !24
  call void @Abc_DesFree(ptr noundef %10, ptr noundef null)
  %11 = load ptr, ptr %2, align 8, !tbaa !12
  %12 = getelementptr inbounds nuw %struct.Ver_Man_t_, ptr %11, i32 0, i32 7
  store ptr null, ptr %12, align 8, !tbaa !24
  br label %13

13:                                               ; preds = %7, %1
  ret void
}

; Function Attrs: inlinehint nounwind willreturn memory(read) uwtable
define available_externally i32 @atoi(ptr noundef nonnull %0) #5 {
  %2 = alloca ptr, align 8
  store ptr %0, ptr %2, align 8, !tbaa !3
  %3 = load ptr, ptr %2, align 8, !tbaa !3
  %4 = call i64 @strtol(ptr noundef %3, ptr noundef null, i32 noundef 10) #10
  %5 = trunc i64 %4 to i32
  ret i32 %5
}

; Function Attrs: nounwind uwtable
define void @Ver_ParsePrintErrorMessage(ptr noundef %0) #0 {
  %2 = alloca ptr, align 8
  store ptr %0, ptr %2, align 8, !tbaa !12
  %3 = load ptr, ptr %2, align 8, !tbaa !12
  %4 = getelementptr inbounds nuw %struct.Ver_Man_t_, ptr %3, i32 0, i32 11
  store i32 1, ptr %4, align 4, !tbaa !56
  %5 = load ptr, ptr %2, align 8, !tbaa !12
  %6 = getelementptr inbounds nuw %struct.Ver_Man_t_, ptr %5, i32 0, i32 10
  %7 = load i32, ptr %6, align 8, !tbaa !41
  %8 = icmp ne i32 %7, 0
  br i1 %8, label %9, label %20

9:                                                ; preds = %1
  %10 = load ptr, ptr %2, align 8, !tbaa !12
  %11 = getelementptr inbounds nuw %struct.Ver_Man_t_, ptr %10, i32 0, i32 9
  %12 = load ptr, ptr %11, align 8, !tbaa !30
  %13 = load ptr, ptr %2, align 8, !tbaa !12
  %14 = getelementptr inbounds nuw %struct.Ver_Man_t_, ptr %13, i32 0, i32 3
  %15 = load ptr, ptr %14, align 8, !tbaa !27
  %16 = load ptr, ptr %2, align 8, !tbaa !12
  %17 = getelementptr inbounds nuw %struct.Ver_Man_t_, ptr %16, i32 0, i32 12
  %18 = getelementptr inbounds [2000 x i8], ptr %17, i64 0, i64 0
  %19 = call i32 (ptr, ptr, ...) @fprintf(ptr noundef %12, ptr noundef @.str, ptr noundef %15, ptr noundef %18) #10
  br label %35

20:                                               ; preds = %1
  %21 = load ptr, ptr %2, align 8, !tbaa !12
  %22 = getelementptr inbounds nuw %struct.Ver_Man_t_, ptr %21, i32 0, i32 9
  %23 = load ptr, ptr %22, align 8, !tbaa !30
  %24 = load ptr, ptr %2, align 8, !tbaa !12
  %25 = getelementptr inbounds nuw %struct.Ver_Man_t_, ptr %24, i32 0, i32 3
  %26 = load ptr, ptr %25, align 8, !tbaa !27
  %27 = load ptr, ptr %2, align 8, !tbaa !12
  %28 = getelementptr inbounds nuw %struct.Ver_Man_t_, ptr %27, i32 0, i32 4
  %29 = load ptr, ptr %28, align 8, !tbaa !28
  %30 = call i32 @Ver_StreamGetLineNumber(ptr noundef %29)
  %31 = load ptr, ptr %2, align 8, !tbaa !12
  %32 = getelementptr inbounds nuw %struct.Ver_Man_t_, ptr %31, i32 0, i32 12
  %33 = getelementptr inbounds [2000 x i8], ptr %32, i64 0, i64 0
  %34 = call i32 (ptr, ptr, ...) @fprintf(ptr noundef %23, ptr noundef @.str.1, ptr noundef %26, i32 noundef %30, ptr noundef %33) #10
  br label %35

35:                                               ; preds = %20, %9
  %36 = load ptr, ptr %2, align 8, !tbaa !12
  call void @Ver_ParseFreeData(ptr noundef %36)
  ret void
}

; Function Attrs: nounwind uwtable
define i32 @Ver_ParseSignalSuffix(ptr noundef %0, ptr noundef %1, ptr noundef %2, ptr noundef %3) #0 {
  %5 = alloca i32, align 4
  %6 = alloca ptr, align 8
  %7 = alloca ptr, align 8
  %8 = alloca ptr, align 8
  %9 = alloca ptr, align 8
  %10 = alloca ptr, align 8
  %11 = alloca i32, align 4
  %12 = alloca i32, align 4
  store ptr %0, ptr %6, align 8, !tbaa !12
  store ptr %1, ptr %7, align 8, !tbaa !3
  store ptr %2, ptr %8, align 8, !tbaa !62
  store ptr %3, ptr %9, align 8, !tbaa !62
  call void @llvm.lifetime.start.p0(i64 8, ptr %10) #10
  call void @llvm.lifetime.start.p0(i64 4, ptr %11) #10
  %13 = load ptr, ptr %7, align 8, !tbaa !3
  %14 = call i64 @strlen(ptr noundef %13) #12
  %15 = trunc i64 %14 to i32
  store i32 %15, ptr %11, align 4, !tbaa !10
  %16 = load ptr, ptr %7, align 8, !tbaa !3
  %17 = load i32, ptr %11, align 4, !tbaa !10
  %18 = sext i32 %17 to i64
  %19 = getelementptr inbounds i8, ptr %16, i64 %18
  %20 = getelementptr inbounds i8, ptr %19, i64 -2
  store ptr %20, ptr %10, align 8, !tbaa !3
  br label %21

21:                                               ; preds = %37, %4
  %22 = load ptr, ptr %10, align 8, !tbaa !3
  %23 = load ptr, ptr %7, align 8, !tbaa !3
  %24 = icmp ne ptr %22, %23
  br i1 %24, label %25, label %40

25:                                               ; preds = %21
  %26 = load ptr, ptr %10, align 8, !tbaa !3
  %27 = load i8, ptr %26, align 1, !tbaa !66
  %28 = sext i8 %27 to i32
  %29 = icmp eq i32 %28, 58
  br i1 %29, label %35, label %30

30:                                               ; preds = %25
  %31 = load ptr, ptr %10, align 8, !tbaa !3
  %32 = load i8, ptr %31, align 1, !tbaa !66
  %33 = sext i8 %32 to i32
  %34 = icmp eq i32 %33, 91
  br i1 %34, label %35, label %36

35:                                               ; preds = %30, %25
  br label %40

36:                                               ; preds = %30
  br label %37

37:                                               ; preds = %36
  %38 = load ptr, ptr %10, align 8, !tbaa !3
  %39 = getelementptr inbounds i8, ptr %38, i32 -1
  store ptr %39, ptr %10, align 8, !tbaa !3
  br label %21, !llvm.loop !70

40:                                               ; preds = %35, %21
  %41 = load ptr, ptr %10, align 8, !tbaa !3
  %42 = load ptr, ptr %7, align 8, !tbaa !3
  %43 = icmp eq ptr %41, %42
  br i1 %43, label %44, label %51

44:                                               ; preds = %40
  %45 = load ptr, ptr %6, align 8, !tbaa !12
  %46 = getelementptr inbounds nuw %struct.Ver_Man_t_, ptr %45, i32 0, i32 12
  %47 = getelementptr inbounds [2000 x i8], ptr %46, i64 0, i64 0
  %48 = load ptr, ptr %7, align 8, !tbaa !3
  %49 = call i32 (ptr, ptr, ...) @sprintf(ptr noundef %47, ptr noundef @.str.7, ptr noundef %48) #10
  %50 = load ptr, ptr %6, align 8, !tbaa !12
  call void @Ver_ParsePrintErrorMessage(ptr noundef %50)
  store i32 0, ptr %5, align 4
  store i32 1, ptr %12, align 4
  br label %104

51:                                               ; preds = %40
  %52 = load ptr, ptr %10, align 8, !tbaa !3
  %53 = load i8, ptr %52, align 1, !tbaa !66
  %54 = sext i8 %53 to i32
  %55 = icmp eq i32 %54, 91
  br i1 %55, label %56, label %63

56:                                               ; preds = %51
  %57 = load ptr, ptr %10, align 8, !tbaa !3
  %58 = getelementptr inbounds i8, ptr %57, i64 1
  %59 = call i32 @atoi(ptr noundef %58) #12
  %60 = load ptr, ptr %9, align 8, !tbaa !62
  store i32 %59, ptr %60, align 4, !tbaa !10
  %61 = load ptr, ptr %8, align 8, !tbaa !62
  store i32 %59, ptr %61, align 4, !tbaa !10
  %62 = load ptr, ptr %10, align 8, !tbaa !3
  store i8 0, ptr %62, align 1, !tbaa !66
  store i32 1, ptr %5, align 4
  store i32 1, ptr %12, align 4
  br label %104

63:                                               ; preds = %51
  %64 = load ptr, ptr %10, align 8, !tbaa !3
  %65 = getelementptr inbounds i8, ptr %64, i64 1
  %66 = call i32 @atoi(ptr noundef %65) #12
  %67 = load ptr, ptr %9, align 8, !tbaa !62
  store i32 %66, ptr %67, align 4, !tbaa !10
  %68 = load ptr, ptr %7, align 8, !tbaa !3
  %69 = load i32, ptr %11, align 4, !tbaa !10
  %70 = sext i32 %69 to i64
  %71 = getelementptr inbounds i8, ptr %68, i64 %70
  %72 = getelementptr inbounds i8, ptr %71, i64 -2
  store ptr %72, ptr %10, align 8, !tbaa !3
  br label %73

73:                                               ; preds = %84, %63
  %74 = load ptr, ptr %10, align 8, !tbaa !3
  %75 = load ptr, ptr %7, align 8, !tbaa !3
  %76 = icmp ne ptr %74, %75
  br i1 %76, label %77, label %87

77:                                               ; preds = %73
  %78 = load ptr, ptr %10, align 8, !tbaa !3
  %79 = load i8, ptr %78, align 1, !tbaa !66
  %80 = sext i8 %79 to i32
  %81 = icmp eq i32 %80, 91
  br i1 %81, label %82, label %83

82:                                               ; preds = %77
  br label %87

83:                                               ; preds = %77
  br label %84

84:                                               ; preds = %83
  %85 = load ptr, ptr %10, align 8, !tbaa !3
  %86 = getelementptr inbounds i8, ptr %85, i32 -1
  store ptr %86, ptr %10, align 8, !tbaa !3
  br label %73, !llvm.loop !71

87:                                               ; preds = %82, %73
  %88 = load ptr, ptr %10, align 8, !tbaa !3
  %89 = load ptr, ptr %7, align 8, !tbaa !3
  %90 = icmp eq ptr %88, %89
  br i1 %90, label %91, label %98

91:                                               ; preds = %87
  %92 = load ptr, ptr %6, align 8, !tbaa !12
  %93 = getelementptr inbounds nuw %struct.Ver_Man_t_, ptr %92, i32 0, i32 12
  %94 = getelementptr inbounds [2000 x i8], ptr %93, i64 0, i64 0
  %95 = load ptr, ptr %7, align 8, !tbaa !3
  %96 = call i32 (ptr, ptr, ...) @sprintf(ptr noundef %94, ptr noundef @.str.7, ptr noundef %95) #10
  %97 = load ptr, ptr %6, align 8, !tbaa !12
  call void @Ver_ParsePrintErrorMessage(ptr noundef %97)
  store i32 0, ptr %5, align 4
  store i32 1, ptr %12, align 4
  br label %104

98:                                               ; preds = %87
  %99 = load ptr, ptr %10, align 8, !tbaa !3
  %100 = getelementptr inbounds i8, ptr %99, i64 1
  %101 = call i32 @atoi(ptr noundef %100) #12
  %102 = load ptr, ptr %8, align 8, !tbaa !62
  store i32 %101, ptr %102, align 4, !tbaa !10
  %103 = load ptr, ptr %10, align 8, !tbaa !3
  store i8 0, ptr %103, align 1, !tbaa !66
  store i32 1, ptr %5, align 4
  store i32 1, ptr %12, align 4
  br label %104

104:                                              ; preds = %98, %91, %56, %44
  call void @llvm.lifetime.end.p0(i64 4, ptr %11) #10
  call void @llvm.lifetime.end.p0(i64 8, ptr %10) #10
  %105 = load i32, ptr %5, align 4
  ret i32 %105
}