; Function Attrs: nounwind uwtable
define range(i32 0, 2) i32 @Ver_ParseSignalSuffix(ptr noundef %0, ptr noundef %1, ptr noundef writeonly captures(none) %2, ptr noundef writeonly captures(none) %3) local_unnamed_addr #0 {
  %5 = tail call i64 @strlen(ptr noundef nonnull dereferenceable(1) %1) #22
  %sext = shl i64 %5, 32
  %6 = ashr exact i64 %sext, 32
  %7 = getelementptr inbounds i8, ptr %1, i64 %6
  %8 = getelementptr inbounds i8, ptr %7, i64 -2
  %.not47 = icmp eq ptr %8, %1
  br i1 %.not47, label %._crit_edge, label %.lr.ph

.lr.ph:                                           ; preds = %4, %10
  %.03448 = phi ptr [ %11, %10 ], [ %8, %4 ]
  %9 = load i8, ptr %.03448, align 1, !tbaa !73
  switch i8 %9, label %10 [
    i8 91, label %32
    i8 58, label %.lr.ph52.preheader
  ]

10:                                               ; preds = %.lr.ph
  %11 = getelementptr inbounds i8, ptr %.03448, i64 -1
  %.not = icmp eq ptr %11, %1
  br i1 %.not, label %._crit_edge, label %.lr.ph, !llvm.loop !96

._crit_edge:                                      ; preds = %10, %4
  %12 = getelementptr inbounds nuw i8, ptr %0, i64 80
  %13 = tail call i32 (ptr, ptr, ...) @sprintf(ptr noundef nonnull dereferenceable(1) %12, ptr noundef nonnull dereferenceable(1) @.str.7, ptr noundef nonnull %1) #20
  %14 = getelementptr inbounds nuw i8, ptr %0, i64 76
  store i32 1, ptr %14, align 4, !tbaa !43
  %15 = getelementptr inbounds nuw i8, ptr %0, i64 72
  %16 = load i32, ptr %15, align 8, !tbaa !44
  %.not.i = icmp eq i32 %16, 0
  %17 = getelementptr inbounds nuw i8, ptr %0, i64 64
  %18 = load ptr, ptr %17, align 8, !tbaa !19
  %19 = getelementptr inbounds nuw i8, ptr %0, i64 16
  %20 = load ptr, ptr %19, align 8, !tbaa !3
  br i1 %.not.i, label %23, label %21

21:                                               ; preds = %._crit_edge
  %22 = tail call i32 (ptr, ptr, ...) @fprintf(ptr noundef %18, ptr noundef nonnull @.str, ptr noundef %20, ptr noundef nonnull %12) #20
  br label %28

23:                                               ; preds = %._crit_edge
  %24 = getelementptr inbounds nuw i8, ptr %0, i64 24
  %25 = load ptr, ptr %24, align 8, !tbaa !17
  %26 = tail call i32 @Ver_StreamGetLineNumber(ptr noundef %25) #20
  %27 = tail call i32 (ptr, ptr, ...) @fprintf(ptr noundef %18, ptr noundef nonnull @.str.1, ptr noundef %20, i32 noundef %26, ptr noundef nonnull %12) #20
  br label %28

28:                                               ; preds = %23, %21
  %29 = getelementptr inbounds nuw i8, ptr %0, i64 48
  %30 = load ptr, ptr %29, align 8, !tbaa !33
  %.not.i.i = icmp eq ptr %30, null
  br i1 %.not.i.i, label %Ver_ParsePrintErrorMessage.exit, label %31

31:                                               ; preds = %28
  tail call void @Abc_DesFree(ptr noundef nonnull %30, ptr noundef null) #20
  store ptr null, ptr %29, align 8, !tbaa !33
  br label %Ver_ParsePrintErrorMessage.exit

32:                                               ; preds = %.lr.ph
  %33 = getelementptr inbounds nuw i8, ptr %.03448, i64 1
  %34 = tail call i64 @strtol(ptr noundef nonnull captures(none) %33, ptr noundef null, i32 noundef 10) #20
  %35 = trunc i64 %34 to i32
  store i32 %35, ptr %3, align 4, !tbaa !37
  store i32 %35, ptr %2, align 4, !tbaa !37
  store i8 0, ptr %.03448, align 1, !tbaa !73
  br label %Ver_ParsePrintErrorMessage.exit

.lr.ph52.preheader:                               ; preds = %.lr.ph
  %36 = getelementptr inbounds nuw i8, ptr %.03448, i64 1
  %37 = tail call i64 @strtol(ptr noundef nonnull captures(none) %36, ptr noundef null, i32 noundef 10) #20
  %38 = trunc i64 %37 to i32
  store i32 %38, ptr %3, align 4, !tbaa !37
  br label %.lr.ph52

.lr.ph52:                                         ; preds = %.lr.ph52.preheader, %41
  %.150 = phi ptr [ %42, %41 ], [ %8, %.lr.ph52.preheader ]
  %39 = load i8, ptr %.150, align 1, !tbaa !73
  %40 = icmp eq i8 %39, 91
  br i1 %40, label %63, label %41

41:                                               ; preds = %.lr.ph52
  %42 = getelementptr inbounds i8, ptr %.150, i64 -1
  %.not38 = icmp eq ptr %42, %1
  br i1 %.not38, label %._crit_edge53, label %.lr.ph52, !llvm.loop !97

._crit_edge53:                                    ; preds = %41
  %43 = getelementptr inbounds nuw i8, ptr %0, i64 80
  %44 = tail call i32 (ptr, ptr, ...) @sprintf(ptr noundef nonnull dereferenceable(1) %43, ptr noundef nonnull dereferenceable(1) @.str.7, ptr noundef nonnull %1) #20
  %45 = getelementptr inbounds nuw i8, ptr %0, i64 76
  store i32 1, ptr %45, align 4, !tbaa !43
  %46 = getelementptr inbounds nuw i8, ptr %0, i64 72
  %47 = load i32, ptr %46, align 8, !tbaa !44
  %.not.i39 = icmp eq i32 %47, 0
  %48 = getelementptr inbounds nuw i8, ptr %0, i64 64
  %49 = load ptr, ptr %48, align 8, !tbaa !19
  %50 = getelementptr inbounds nuw i8, ptr %0, i64 16
  %51 = load ptr, ptr %50, align 8, !tbaa !3
  br i1 %.not.i39, label %54, label %52

52:                                               ; preds = %._crit_edge53
  %53 = tail call i32 (ptr, ptr, ...) @fprintf(ptr noundef %49, ptr noundef nonnull @.str, ptr noundef %51, ptr noundef nonnull %43) #20
  br label %59

54:                                               ; preds = %._crit_edge53
  %55 = getelementptr inbounds nuw i8, ptr %0, i64 24
  %56 = load ptr, ptr %55, align 8, !tbaa !17
  %57 = tail call i32 @Ver_StreamGetLineNumber(ptr noundef %56) #20
  %58 = tail call i32 (ptr, ptr, ...) @fprintf(ptr noundef %49, ptr noundef nonnull @.str.1, ptr noundef %51, i32 noundef %57, ptr noundef nonnull %43) #20
  br label %59

59:                                               ; preds = %54, %52
  %60 = getelementptr inbounds nuw i8, ptr %0, i64 48
  %61 = load ptr, ptr %60, align 8, !tbaa !33
  %.not.i.i40 = icmp eq ptr %61, null
  br i1 %.not.i.i40, label %Ver_ParsePrintErrorMessage.exit, label %62

62:                                               ; preds = %59
  tail call void @Abc_DesFree(ptr noundef nonnull %61, ptr noundef null) #20
  store ptr null, ptr %60, align 8, !tbaa !33
  br label %Ver_ParsePrintErrorMessage.exit

63:                                               ; preds = %.lr.ph52
  %64 = getelementptr inbounds nuw i8, ptr %.150, i64 1
  %65 = tail call i64 @strtol(ptr noundef nonnull captures(none) %64, ptr noundef null, i32 noundef 10) #20
  %66 = trunc i64 %65 to i32
  store i32 %66, ptr %2, align 4, !tbaa !37
  store i8 0, ptr %.150, align 1, !tbaa !73
  br label %Ver_ParsePrintErrorMessage.exit

Ver_ParsePrintErrorMessage.exit:                  ; preds = %62, %59, %31, %28, %63, %32
  %.0 = phi i32 [ 1, %32 ], [ 1, %63 ], [ 0, %28 ], [ 0, %31 ], [ 0, %59 ], [ 0, %62 ]
  ret i32 %.0
}